target datalayout = "e-m:e-p270:32:32-p271:32:32-p272:64:64-i64:64-i128:128-f80:128-n8:16:32:64-S128"
target triple = "x86_64-pc-linux-gnu"

%"struct.absl::cord_internal::SamplingState" = type { i64, i64 }
%class.anon = type { ptr }
%"struct.std::thread::_State_impl" = type { %"struct.std::thread::_State", %"struct.std::thread::_Invoker" }
%"struct.std::thread::_State" = type { ptr }
%"struct.std::thread::_Invoker" = type { %"class.std::tuple.64" }
%"class.std::tuple.64" = type { %"struct.std::_Tuple_impl.65" }
%"struct.std::_Tuple_impl.65" = type { %"struct.std::_Head_base.66" }
%"struct.std::_Head_base.66" = type { %class.anon }

@_ZN4absl13cord_internal17cordz_next_sampleE = external thread_local global %"struct.absl::cord_internal::SamplingState", align 8

; Function Attrs: inlinehint mustprogress uwtable
define linkonce_odr dso_local noundef i64 @_ZN4absl13cord_internal20cordz_should_profileEv() #8 comdat {
  %1 = alloca i64, align 8
  %2 = call align 8 ptr @llvm.threadlocal.address.p0(ptr align 8 @_ZN4absl13cord_internal17cordz_next_sampleE)
  %3 = getelementptr inbounds nuw %"struct.absl::cord_internal::SamplingState", ptr %2, i32 0, i32 0
  %4 = load i64, ptr %3, align 8, !tbaa !241
  %5 = icmp sgt i64 %4, 1
  %6 = zext i1 %5 to i64
  %7 = call i64 @llvm.expect.i64(i64 %6, i64 1)
  %8 = icmp ne i64 %7, 0
  br i1 %8, label %9, label %14

9:                                                ; preds = %0
  %10 = call align 8 ptr @llvm.threadlocal.address.p0(ptr align 8 @_ZN4absl13cord_internal17cordz_next_sampleE)
  %11 = getelementptr inbounds nuw %"struct.absl::cord_internal::SamplingState", ptr %10, i32 0, i32 0
  %12 = load i64, ptr %11, align 8, !tbaa !241
  %13 = add nsw i64 %12, -1
  store i64 %13, ptr %11, align 8, !tbaa !241
  store i64 0, ptr %1, align 8
  br label %17

14:                                               ; preds = %0
  %15 = call align 8 ptr @llvm.threadlocal.address.p0(ptr align 8 @_ZN4absl13cord_internal17cordz_next_sampleE)
  %16 = call noundef i64 @_ZN4absl13cord_internal25cordz_should_profile_slowERNS0_13SamplingStateE(ptr noundef nonnull align 8 dereferenceable(16) %15)
  store i64 %16, ptr %1, align 8
  br label %17

17:                                               ; preds = %14, %9
  %18 = load i64, ptr %1, align 8
  ret i64 %18
}

; Function Attrs: mustprogress nounwind uwtable
define internal noundef nonnull align 8 dereferenceable(8) ptr @"_ZNSt10_Head_baseILm0EZN4absl13cord_internal12_GLOBAL__N_152CordzFunctionsTest_DoesNotAlwaysSampleFirstCord_Test8TestBodyEvE3$_0Lb0EE7_M_headERS5_"(ptr noundef nonnull align 8 dereferenceable(8) %0) #5 align 2 {
  %2 = alloca ptr, align 8
  store ptr %0, ptr %2, align 8, !tbaa !317
  %3 = load ptr, ptr %2, align 8, !tbaa !317
  %4 = getelementptr inbounds nuw %"struct.std::_Head_base.66", ptr %3, i32 0, i32 0
  ret ptr %4
}

; Function Attrs: inlinehint mustprogress uwtable
define internal void @"_ZZN4absl13cord_internal12_GLOBAL__N_152CordzFunctionsTest_DoesNotAlwaysSampleFirstCord_Test8TestBodyEvENK3$_0clEv"(ptr noundef nonnull align 8 dereferenceable(8) %0) #8 align 2 {
  %2 = alloca ptr, align 8
  store ptr %0, ptr %2, align 8, !tbaa !24
  %3 = load ptr, ptr %2, align 8
  %4 = call noundef i64 @_ZN4absl13cord_internal20cordz_should_profileEv()
  %5 = icmp sgt i64 %4, 0
  %6 = getelementptr inbounds nuw %class.anon, ptr %3, i32 0, i32 0
  %7 = load ptr, ptr %6, align 8, !tbaa !320
  %8 = zext i1 %5 to i8
  store i8 %8, ptr %7, align 1, !tbaa !95
  ret void
}

; Function Attrs: mustprogress nounwind uwtable
define internal noundef nonnull align 8 dereferenceable(8) ptr @"_ZNSt11_Tuple_implILm0EJZN4absl13cord_internal12_GLOBAL__N_152CordzFunctionsTest_DoesNotAlwaysSampleFirstCord_Test8TestBodyEvE3$_0EE7_M_headERS5_"(ptr noundef nonnull align 8 dereferenceable(8) %0) #5 align 2 {
  %2 = alloca ptr, align 8
  store ptr %0, ptr %2, align 8, !tbaa !315
  %3 = load ptr, ptr %2, align 8, !tbaa !315
  %4 = call noundef nonnull align 8 dereferenceable(8) ptr @"_ZNSt10_Head_baseILm0EZN4absl13cord_internal12_GLOBAL__N_152CordzFunctionsTest_DoesNotAlwaysSampleFirstCord_Test8TestBodyEvE3$_0Lb0EE7_M_headERS5_"(ptr noundef nonnull align 8 dereferenceable(8) %3) #3
  ret ptr %4
}

; Function Attrs: mustprogress uwtable
define internal void @"_ZSt13__invoke_implIvZN4absl13cord_internal12_GLOBAL__N_152CordzFunctionsTest_DoesNotAlwaysSampleFirstCord_Test8TestBodyEvE3$_0JEET_St14__invoke_otherOT0_DpOT1_"(ptr noundef nonnull align 8 dereferenceable(8) %0) #6 {
  %2 = alloca ptr, align 8
  store ptr %0, ptr %2, align 8, !tbaa !24
  %3 = load ptr, ptr %2, align 8, !tbaa !24
  call void @"_ZZN4absl13cord_internal12_GLOBAL__N_152CordzFunctionsTest_DoesNotAlwaysSampleFirstCord_Test8TestBodyEvENK3$_0clEv"(ptr noundef nonnull align 8 dereferenceable(8) %3)
  ret void
}

; Function Attrs: mustprogress nounwind uwtable
define internal noundef nonnull align 8 dereferenceable(8) ptr @"_ZSt12__get_helperILm0EZN4absl13cord_internal12_GLOBAL__N_152CordzFunctionsTest_DoesNotAlwaysSampleFirstCord_Test8TestBodyEvE3$_0JEERT0_RSt11_Tuple_implIXT_EJS5_DpT1_EE"(ptr noundef nonnull align 8 dereferenceable(8) %0) #5 {
  %2 = alloca ptr, align 8
  store ptr %0, ptr %2, align 8, !tbaa !315
  %3 = load ptr, ptr %2, align 8, !tbaa !315
  %4 = call noundef nonnull align 8 dereferenceable(8) ptr @"_ZNSt11_Tuple_implILm0EJZN4absl13cord_internal12_GLOBAL__N_152CordzFunctionsTest_DoesNotAlwaysSampleFirstCord_Test8TestBodyEvE3$_0EE7_M_headERS5_"(ptr noundef nonnull align 8 dereferenceable(8) %3) #3
  ret ptr %4
}

; Function Attrs: mustprogress uwtable
define internal void @"_ZSt8__invokeIZN4absl13cord_internal12_GLOBAL__N_152CordzFunctionsTest_DoesNotAlwaysSampleFirstCord_Test8TestBodyEvE3$_0JEENSt15__invoke_resultIT_JDpT0_EE4typeEOS6_DpOS7_"(ptr noundef nonnull align 8 dereferenceable(8) %0) #6 {
  %2 = alloca ptr, align 8
  store ptr %0, ptr %2, align 8, !tbaa !24
  %3 = load ptr, ptr %2, align 8, !tbaa !24
  call void @"_ZSt13__invoke_implIvZN4absl13cord_internal12_GLOBAL__N_152CordzFunctionsTest_DoesNotAlwaysSampleFirstCord_Test8TestBodyEvE3$_0JEET_St14__invoke_otherOT0_DpOT1_"(ptr noundef nonnull align 8 dereferenceable(8) %3)
  ret void
}

; Function Attrs: mustprogress nounwind uwtable
define internal noundef nonnull align 8 dereferenceable(8) ptr @"_ZSt3getILm0EJZN4absl13cord_internal12_GLOBAL__N_152CordzFunctionsTest_DoesNotAlwaysSampleFirstCord_Test8TestBodyEvE3$_0EEONSt13tuple_elementIXT_ESt5tupleIJDpT0_EEE4typeEOS9_"(ptr noundef nonnull align 8 dereferenceable(8) %0) #5 {
  %2 = alloca ptr, align 8
  store ptr %0, ptr %2, align 8, !tbaa !313
  %3 = load ptr, ptr %2, align 8, !tbaa !313
  %4 = call noundef nonnull align 8 dereferenceable(8) ptr @"_ZSt12__get_helperILm0EZN4absl13cord_internal12_GLOBAL__N_152CordzFunctionsTest_DoesNotAlwaysSampleFirstCord_Test8TestBodyEvE3$_0JEERT0_RSt11_Tuple_implIXT_EJS5_DpT1_EE"(ptr noundef nonnull align 8 dereferenceable(8) %3) #3
  ret ptr %4
}

; Function Attrs: mustprogress uwtable
define internal void @"_ZNSt6thread8_InvokerISt5tupleIJZN4absl13cord_internal12_GLOBAL__N_152CordzFunctionsTest_DoesNotAlwaysSampleFirstCord_Test8TestBodyEvE3$_0EEE9_M_invokeIJLm0EEEEvSt12_Index_tupleIJXspT_EEE"(ptr noundef nonnull align 8 dereferenceable(8) %0) #6 align 2 {
  %2 = alloca ptr, align 8
  store ptr %0, ptr %2, align 8, !tbaa !311
  %3 = load ptr, ptr %2, align 8
  %4 = getelementptr inbounds nuw %"struct.std::thread::_Invoker", ptr %3, i32 0, i32 0
  %5 = call noundef nonnull align 8 dereferenceable(8) ptr @"_ZSt3getILm0EJZN4absl13cord_internal12_GLOBAL__N_152CordzFunctionsTest_DoesNotAlwaysSampleFirstCord_Test8TestBodyEvE3$_0EEONSt13tuple_elementIXT_ESt5tupleIJDpT0_EEE4typeEOS9_"(ptr noundef nonnull align 8 dereferenceable(8) %4) #3
  call void @"_ZSt8__invokeIZN4absl13cord_internal12_GLOBAL__N_152CordzFunctionsTest_DoesNotAlwaysSampleFirstCord_Test8TestBodyEvE3$_0JEENSt15__invoke_resultIT_JDpT0_EE4typeEOS6_DpOS7_"(ptr noundef nonnull align 8 dereferenceable(8) %5)
  ret void
}

; Function Attrs: mustprogress uwtable
define internal void @"_ZNSt6thread8_InvokerISt5tupleIJZN4absl13cord_internal12_GLOBAL__N_152CordzFunctionsTest_DoesNotAlwaysSampleFirstCord_Test8TestBodyEvE3$_0EEEclEv"(ptr noundef nonnull align 8 dereferenceable(8) %0) #6 align 2 {
  %2 = alloca ptr, align 8
  store ptr %0, ptr %2, align 8, !tbaa !311
  %3 = load ptr, ptr %2, align 8
  call void @"_ZNSt6thread8_InvokerISt5tupleIJZN4absl13cord_internal12_GLOBAL__N_152CordzFunctionsTest_DoesNotAlwaysSampleFirstCord_Test8TestBodyEvE3$_0EEE9_M_invokeIJLm0EEEEvSt12_Index_tupleIJXspT_EEE"(ptr noundef nonnull align 8 dereferenceable(8) %3)
  ret void
}

; Function Attrs: mustprogress uwtable
define internal void @"_ZNSt6thread11_State_implINS_8_InvokerISt5tupleIJZN4absl13cord_internal12_GLOBAL__N_152CordzFunctionsTest_DoesNotAlwaysSampleFirstCord_Test8TestBodyEvE3$_0EEEEE6_M_runEv"(ptr noundef nonnull align 8 dereferenceable(16) %0) unnamed_addr #6 align 2 {
  %2 = alloca ptr, align 8
  store ptr %0, ptr %2, align 8, !tbaa !303
  %3 = load ptr, ptr %2, align 8
  %4 = getelementptr inbounds nuw %"struct.std::thread::_State_impl", ptr %3, i32 0, i32 1
  call void @"_ZNSt6thread8_InvokerISt5tupleIJZN4absl13cord_internal12_GLOBAL__N_152CordzFunctionsTest_DoesNotAlwaysSampleFirstCord_Test8TestBodyEvE3$_0EEEclEv"(ptr noundef nonnull align 8 dereferenceable(8) %4)
  ret void
}