; Function Attrs: mustprogress uwtable
define internal void @"_ZNSt6thread11_State_implINS_8_InvokerISt5tupleIJZN4absl13cord_internal12_GLOBAL__N_152CordzFunctionsTest_DoesNotAlwaysSampleFirstCord_Test8TestBodyEvE3$_0EEEEE6_M_runEv"(ptr noundef nonnull readonly align 8 captures(none) dereferenceable(16) %0) unnamed_addr #4 align 2 {
  %2 = tail call align 8 ptr @llvm.threadlocal.address.p0(ptr align 8 @_ZN4absl13cord_internal17cordz_next_sampleE)
  %3 = load i64, ptr %2, align 8, !tbaa !107
  %4 = icmp sgt i64 %3, 1
  br i1 %4, label %5, label %7, !prof !109

5:                                                ; preds = %1
  %6 = add nsw i64 %3, -1
  store i64 %6, ptr %2, align 8, !tbaa !107
  br label %"_ZNSt6thread8_InvokerISt5tupleIJZN4absl13cord_internal12_GLOBAL__N_152CordzFunctionsTest_DoesNotAlwaysSampleFirstCord_Test8TestBodyEvE3$_0EEEclEv.exit"

7:                                                ; preds = %1
  %8 = tail call noundef i64 @_ZN4absl13cord_internal25cordz_should_profile_slowERNS0_13SamplingStateE(ptr noundef nonnull align 8 dereferenceable(16) %2)
  %9 = icmp sgt i64 %8, 0
  %10 = zext i1 %9 to i8
  br label %"_ZNSt6thread8_InvokerISt5tupleIJZN4absl13cord_internal12_GLOBAL__N_152CordzFunctionsTest_DoesNotAlwaysSampleFirstCord_Test8TestBodyEvE3$_0EEEclEv.exit"

"_ZNSt6thread8_InvokerISt5tupleIJZN4absl13cord_internal12_GLOBAL__N_152CordzFunctionsTest_DoesNotAlwaysSampleFirstCord_Test8TestBodyEvE3$_0EEEclEv.exit": ; preds = %5, %7
  %.0.i.i.i.i.i.i = phi i8 [ 0, %5 ], [ %10, %7 ]
  %11 = getelementptr inbounds nuw i8, ptr %0, i64 8
  %12 = load ptr, ptr %11, align 8, !tbaa !239
  store i8 %.0.i.i.i.i.i.i, ptr %12, align 1, !tbaa !201
  ret void
}